; Function Attrs: null_pointer_is_valid sspstrong uwtable
define hidden noundef zeroext i16 @de_gmm_voice_domain_pref(ptr noundef %0, ptr noundef %1, ptr readnone captures(none) %2, i32 noundef %3, i32 noundef %4, ptr readnone captures(none) %5, i32 %6) #1 {
  %8 = shl i32 %3, 3
  %9 = load i32, ptr @hf_gsm_a_spare_bits, align 4
  %10 = tail call ptr @proto_tree_add_bits_item(ptr noundef %1, i32 noundef %9, ptr noundef %0, i32 noundef %8, i32 noundef 5, i32 noundef 0)
  %11 = or disjoint i32 %8, 5
  %12 = load i32, ptr @hf_gsm_a_gm_ue_usage_setting, align 4
  %13 = tail call ptr @proto_tree_add_bits_item(ptr noundef %1, i32 noundef %12, ptr noundef %0, i32 noundef %11, i32 noundef 1, i32 noundef 0)
  %14 = or disjoint i32 %8, 6
  %15 = load i32, ptr @hf_gsm_a_gm_voice_domain_pref_for_eutran, align 4
  %16 = tail call ptr @proto_tree_add_bits_item(ptr noundef %1, i32 noundef %15, ptr noundef %0, i32 noundef %14, i32 noundef 2, i32 noundef 0)
  %17 = trunc i32 %4 to i16
  ret i16 %17
}